; ModuleID = '17/1396.c'
source_filename = "17/1396.c"
target datalayout = "e-m:e-p270:32:32-p271:32:32-p272:64:64-i64:64-f80:128-n8:16:32:64-S128"
target triple = "x86_64-pc-linux-gnu"

@.str = private unnamed_addr constant [4 x i8] c"%s\0A\00", align 1

; Function Attrs: noinline nounwind uwtable
define dso_local i32 @main() #0 {
  %1 = alloca i32, align 4
  %2 = alloca [110 x i8], align 16
  %3 = alloca [110 x i8], align 16
  %4 = alloca [110 x i8], align 16
  %5 = alloca i32, align 4
  %6 = alloca i32, align 4
  %7 = alloca i32, align 4
  %8 = alloca i32, align 4
  store i32 0, i32* %1, align 4
  br label %9

9:                                                ; preds = %121, %0
  %10 = getelementptr inbounds [110 x i8], [110 x i8]* %2, i64 0, i64 0
  %11 = call i32 (i8*, ...) bitcast (i32 (...)* @gets to i32 (i8*, ...)*)(i8* %10)
  %12 = icmp ne i32 %11, 0
  br i1 %12, label %13, label %126

13:                                               ; preds = %9
  %14 = getelementptr inbounds [110 x i8], [110 x i8]* %3, i64 0, i64 0
  %15 = getelementptr inbounds [110 x i8], [110 x i8]* %2, i64 0, i64 0
  %16 = call i8* @strcpy(i8* %14, i8* %15) #4
  %17 = getelementptr inbounds [110 x i8], [110 x i8]* %4, i64 0, i64 0
  %18 = getelementptr inbounds [110 x i8], [110 x i8]* %2, i64 0, i64 0
  %19 = call i8* @strcpy(i8* %17, i8* %18) #4
  %20 = getelementptr inbounds [110 x i8], [110 x i8]* %2, i64 0, i64 0
  %21 = call i64 @strlen(i8* %20) #5
  %22 = trunc i64 %21 to i32
  store i32 %22, i32* %7, align 4
  store i32 0, i32* %8, align 4
  %23 = load i32, i32* %7, align 4
  %24 = sub nsw i32 %23, 1
  store i32 %24, i32* %5, align 4
  br label %25

25:                                               ; preds = %72, %13
  %26 = load i32, i32* %5, align 4
  %27 = icmp sge i32 %26, 0
  br i1 %27, label %28, label %75

28:                                               ; preds = %25
  %29 = load i32, i32* %5, align 4
  %30 = sext i32 %29 to i64
  %31 = getelementptr inbounds [110 x i8], [110 x i8]* %2, i64 0, i64 %30
  %32 = load i8, i8* %31, align 1
  %33 = sext i8 %32 to i32
  %34 = icmp eq i32 %33, 40
  br i1 %34, label %35, label %71

35:                                               ; preds = %28
  %36 = load i32, i32* %5, align 4
  store i32 %36, i32* %6, align 4
  br label %37

37:                                               ; preds = %59, %35
  %38 = load i32, i32* %6, align 4
  %39 = load i32, i32* %7, align 4
  %40 = icmp slt i32 %38, %39
  br i1 %40, label %41, label %62

41:                                               ; preds = %37
  %42 = load i32, i32* %6, align 4
  %43 = sext i32 %42 to i64
  %44 = getelementptr inbounds [110 x i8], [110 x i8]* %2, i64 0, i64 %43
  %45 = load i8, i8* %44, align 1
  %46 = sext i8 %45 to i32
  %47 = icmp eq i32 %46, 41
  br i1 %47, label %48, label %58

48:                                               ; preds = %41
  %49 = load i32, i32* %6, align 4
  %50 = sext i32 %49 to i64
  %51 = getelementptr inbounds [110 x i8], [110 x i8]* %2, i64 0, i64 %50
  store i8 99, i8* %51, align 1
  %52 = load i32, i32* %6, align 4
  %53 = sext i32 %52 to i64
  %54 = getelementptr inbounds [110 x i8], [110 x i8]* %3, i64 0, i64 %53
  store i8 32, i8* %54, align 1
  %55 = load i32, i32* %5, align 4
  %56 = sext i32 %55 to i64
  %57 = getelementptr inbounds [110 x i8], [110 x i8]* %3, i64 0, i64 %56
  store i8 32, i8* %57, align 1
  br label %62

58:                                               ; preds = %41
  br label %59

59:                                               ; preds = %58
  %60 = load i32, i32* %6, align 4
  %61 = add nsw i32 %60, 1
  store i32 %61, i32* %6, align 4
  br label %37

62:                                               ; preds = %48, %37
  %63 = load i32, i32* %6, align 4
  %64 = load i32, i32* %7, align 4
  %65 = icmp eq i32 %63, %64
  br i1 %65, label %66, label %70

66:                                               ; preds = %62
  %67 = load i32, i32* %5, align 4
  %68 = sext i32 %67 to i64
  %69 = getelementptr inbounds [110 x i8], [110 x i8]* %3, i64 0, i64 %68
  store i8 36, i8* %69, align 1
  br label %70

70:                                               ; preds = %66, %62
  br label %71

71:                                               ; preds = %70, %28
  br label %72

72:                                               ; preds = %71
  %73 = load i32, i32* %5, align 4
  %74 = add nsw i32 %73, -1
  store i32 %74, i32* %5, align 4
  br label %25

75:                                               ; preds = %25
  store i32 0, i32* %5, align 4
  br label %76

76:                                               ; preds = %118, %75
  %77 = load i32, i32* %5, align 4
  %78 = load i32, i32* %7, align 4
  %79 = icmp slt i32 %77, %78
  br i1 %79, label %80, label %121

80:                                               ; preds = %76
  %81 = load i32, i32* %5, align 4
  %82 = sext i32 %81 to i64
  %83 = getelementptr inbounds [110 x i8], [110 x i8]* %3, i64 0, i64 %82
  %84 = load i8, i8* %83, align 1
  %85 = sext i8 %84 to i32
  %86 = icmp ne i32 %85, 32
  br i1 %86, label %87, label %105

87:                                               ; preds = %80
  %88 = load i32, i32* %5, align 4
  %89 = sext i32 %88 to i64
  %90 = getelementptr inbounds [110 x i8], [110 x i8]* %3, i64 0, i64 %89
  %91 = load i8, i8* %90, align 1
  %92 = sext i8 %91 to i32
  %93 = icmp ne i32 %92, 41
  br i1 %93, label %94, label %105

94:                                               ; preds = %87
  %95 = load i32, i32* %5, align 4
  %96 = sext i32 %95 to i64
  %97 = getelementptr inbounds [110 x i8], [110 x i8]* %3, i64 0, i64 %96
  %98 = load i8, i8* %97, align 1
  %99 = sext i8 %98 to i32
  %100 = icmp ne i32 %99, 36
  br i1 %100, label %101, label %105

101:                                              ; preds = %94
  %102 = load i32, i32* %5, align 4
  %103 = sext i32 %102 to i64
  %104 = getelementptr inbounds [110 x i8], [110 x i8]* %3, i64 0, i64 %103
  store i8 32, i8* %104, align 1
  br label %117

105:                                              ; preds = %94, %87, %80
  %106 = load i32, i32* %5, align 4
  %107 = sext i32 %106 to i64
  %108 = getelementptr inbounds [110 x i8], [110 x i8]* %3, i64 0, i64 %107
  %109 = load i8, i8* %108, align 1
  %110 = sext i8 %109 to i32
  %111 = icmp eq i32 %110, 41
  br i1 %111, label %112, label %116

112:                                              ; preds = %105
  %113 = load i32, i32* %5, align 4
  %114 = sext i32 %113 to i64
  %115 = getelementptr inbounds [110 x i8], [110 x i8]* %3, i64 0, i64 %114
  store i8 63, i8* %115, align 1
  br label %116

116:                                              ; preds = %112, %105
  br label %117

117:                                              ; preds = %116, %101
  br label %118

118:                                              ; preds = %117
  %119 = load i32, i32* %5, align 4
  %120 = add nsw i32 %119, 1
  store i32 %120, i32* %5, align 4
  br label %76

121:                                              ; preds = %76
  %122 = getelementptr inbounds [110 x i8], [110 x i8]* %4, i64 0, i64 0
  %123 = call i32 (i8*, ...) @printf(i8* getelementptr inbounds ([4 x i8], [4 x i8]* @.str, i64 0, i64 0), i8* %122)
  %124 = getelementptr inbounds [110 x i8], [110 x i8]* %3, i64 0, i64 0
  %125 = call i32 (i8*, ...) @printf(i8* getelementptr inbounds ([4 x i8], [4 x i8]* @.str, i64 0, i64 0), i8* %124)
  br label %9

126:                                              ; preds = %9
  ret i32 0
}

declare dso_local i32 @gets(...) #1

; Function Attrs: nounwind
declare dso_local i8* @strcpy(i8*, i8*) #2

; Function Attrs: nounwind readonly
declare dso_local i64 @strlen(i8*) #3

declare dso_local i32 @printf(i8*, ...) #1


!llvm.module.flags = !{!0}
!llvm.ident = !{!1}

!0 = !{i32 1, !"wchar_size", i32 4}
!1 = !{!"clang version 10.0.0-4ubuntu1 "}
